target datalayout = "e-m:e-p270:32:32-p271:32:32-p272:64:64-i64:64-i128:128-f80:128-n8:16:32:64-S128"
target triple = "x86_64-pc-linux-gnu"

; Function Attrs: alwaysinline nounwind willreturn memory(none) uwtable
define internal zeroext i16 @av_bswap16(i16 noundef zeroext %0) #6 {
  %2 = alloca i16, align 2
  store i16 %0, ptr %2, align 2, !tbaa !49
  %3 = load i16, ptr %2, align 2, !tbaa !49
  %4 = zext i16 %3 to i32
  %5 = ashr i32 %4, 8
  %6 = load i16, ptr %2, align 2, !tbaa !49
  %7 = zext i16 %6 to i32
  %8 = shl i32 %7, 8
  %9 = or i32 %5, %8
  %10 = trunc i32 %9 to i16
  store i16 %10, ptr %2, align 2, !tbaa !49
  %11 = load i16, ptr %2, align 2, !tbaa !49
  ret i16 %11
}

; Function Attrs: alwaysinline nounwind willreturn memory(none) uwtable
define internal zeroext i16 @av_clip_uint16_c(i32 noundef %0) #6 {
  %2 = alloca i16, align 2
  %3 = alloca i32, align 4
  store i32 %0, ptr %3, align 4, !tbaa !30
  %4 = load i32, ptr %3, align 4, !tbaa !30
  %5 = and i32 %4, -65536
  %6 = icmp ne i32 %5, 0
  br i1 %6, label %7, label %12

7:                                                ; preds = %1
  %8 = load i32, ptr %3, align 4, !tbaa !30
  %9 = xor i32 %8, -1
  %10 = ashr i32 %9, 31
  %11 = trunc i32 %10 to i16
  store i16 %11, ptr %2, align 2
  br label %15

12:                                               ; preds = %1
  %13 = load i32, ptr %3, align 4, !tbaa !30
  %14 = trunc i32 %13 to i16
  store i16 %14, ptr %2, align 2
  br label %15

15:                                               ; preds = %12, %7
  %16 = load i16, ptr %2, align 2
  ret i16 %16
}

; Function Attrs: alwaysinline nounwind uwtable
define internal void @yuv2ya16_X_c_template(ptr noundef %0, ptr noundef %1, ptr noundef %2, i32 noundef %3, ptr noundef %4, ptr noundef %5, ptr noundef %6, i32 noundef %7, ptr noundef %8, ptr noundef %9, i32 noundef %10, i32 noundef %11, i32 noundef %12, i32 noundef %13, i32 noundef %14, i32 noundef %15) #3 {
  %17 = alloca ptr, align 8
  %18 = alloca ptr, align 8
  %19 = alloca ptr, align 8
  %20 = alloca i32, align 4
  %21 = alloca ptr, align 8
  %22 = alloca ptr, align 8
  %23 = alloca ptr, align 8
  %24 = alloca i32, align 4
  %25 = alloca ptr, align 8
  %26 = alloca ptr, align 8
  %27 = alloca i32, align 4
  %28 = alloca i32, align 4
  %29 = alloca i32, align 4
  %30 = alloca i32, align 4
  %31 = alloca i32, align 4
  %32 = alloca i32, align 4
  %33 = alloca i32, align 4
  %34 = alloca i32, align 4
  %35 = alloca i32, align 4
  %36 = alloca i32, align 4
  %37 = alloca i32, align 4
  store ptr %0, ptr %17, align 8, !tbaa !4
  store ptr %1, ptr %18, align 8, !tbaa !45
  store ptr %2, ptr %19, align 8, !tbaa !59
  store i32 %3, ptr %20, align 4, !tbaa !30
  store ptr %4, ptr %21, align 8, !tbaa !45
  store ptr %5, ptr %22, align 8, !tbaa !59
  store ptr %6, ptr %23, align 8, !tbaa !59
  store i32 %7, ptr %24, align 4, !tbaa !30
  store ptr %8, ptr %25, align 8, !tbaa !59
  store ptr %9, ptr %26, align 8, !tbaa !45
  store i32 %10, ptr %27, align 4, !tbaa !30
  store i32 %11, ptr %28, align 4, !tbaa !30
  store i32 %12, ptr %29, align 4, !tbaa !30
  store i32 %13, ptr %30, align 4, !tbaa !30
  store i32 %14, ptr %31, align 4, !tbaa !30
  store i32 %15, ptr %32, align 4, !tbaa !30
  call void @llvm.lifetime.start.p0(i64 4, ptr %33) #8
  %38 = load ptr, ptr %25, align 8, !tbaa !59
  %39 = icmp ne ptr %38, null
  %40 = xor i1 %39, true
  %41 = xor i1 %40, true
  %42 = zext i1 %41 to i32
  store i32 %42, ptr %33, align 4, !tbaa !30
  call void @llvm.lifetime.start.p0(i64 4, ptr %34) #8
  store i32 0, ptr %34, align 4, !tbaa !30
  br label %43

43:                                               ; preds = %162, %16
  %44 = load i32, ptr %34, align 4, !tbaa !30
  %45 = load i32, ptr %27, align 4, !tbaa !30
  %46 = icmp slt i32 %44, %45
  br i1 %46, label %47, label %165

47:                                               ; preds = %43
  call void @llvm.lifetime.start.p0(i64 4, ptr %35) #8
  call void @llvm.lifetime.start.p0(i64 4, ptr %36) #8
  store i32 -1073741824, ptr %36, align 4, !tbaa !30
  call void @llvm.lifetime.start.p0(i64 4, ptr %37) #8
  store i32 65535, ptr %37, align 4, !tbaa !30
  store i32 0, ptr %35, align 4, !tbaa !30
  br label %48

48:                                               ; preds = %71, %47
  %49 = load i32, ptr %35, align 4, !tbaa !30
  %50 = load i32, ptr %20, align 4, !tbaa !30
  %51 = icmp slt i32 %49, %50
  br i1 %51, label %52, label %74

52:                                               ; preds = %48
  %53 = load ptr, ptr %19, align 8, !tbaa !59
  %54 = load i32, ptr %35, align 4, !tbaa !30
  %55 = sext i32 %54 to i64
  %56 = getelementptr inbounds ptr, ptr %53, i64 %55
  %57 = load ptr, ptr %56, align 8, !tbaa !61
  %58 = load i32, ptr %34, align 4, !tbaa !30
  %59 = sext i32 %58 to i64
  %60 = getelementptr inbounds i32, ptr %57, i64 %59
  %61 = load i32, ptr %60, align 4, !tbaa !30
  %62 = load ptr, ptr %18, align 8, !tbaa !45
  %63 = load i32, ptr %35, align 4, !tbaa !30
  %64 = sext i32 %63 to i64
  %65 = getelementptr inbounds i16, ptr %62, i64 %64
  %66 = load i16, ptr %65, align 2, !tbaa !49
  %67 = sext i16 %66 to i32
  %68 = mul nsw i32 %61, %67
  %69 = load i32, ptr %36, align 4, !tbaa !30
  %70 = add nsw i32 %69, %68
  store i32 %70, ptr %36, align 4, !tbaa !30
  br label %71

71:                                               ; preds = %52
  %72 = load i32, ptr %35, align 4, !tbaa !30
  %73 = add nsw i32 %72, 1
  store i32 %73, ptr %35, align 4, !tbaa !30
  br label %48, !llvm.loop !173

74:                                               ; preds = %48
  %75 = load i32, ptr %36, align 4, !tbaa !30
  %76 = ashr i32 %75, 15
  store i32 %76, ptr %36, align 4, !tbaa !30
  %77 = load i32, ptr %36, align 4, !tbaa !30
  %78 = add nsw i32 %77, 32776
  store i32 %78, ptr %36, align 4, !tbaa !30
  %79 = load i32, ptr %36, align 4, !tbaa !30
  %80 = call zeroext i16 @av_clip_uint16_c(i32 noundef %79) #10
  %81 = zext i16 %80 to i32
  store i32 %81, ptr %36, align 4, !tbaa !30
  %82 = load i32, ptr %33, align 4, !tbaa !30
  %83 = icmp ne i32 %82, 0
  br i1 %83, label %84, label %119

84:                                               ; preds = %74
  store i32 -1073725440, ptr %37, align 4, !tbaa !30
  store i32 0, ptr %35, align 4, !tbaa !30
  br label %85

85:                                               ; preds = %108, %84
  %86 = load i32, ptr %35, align 4, !tbaa !30
  %87 = load i32, ptr %20, align 4, !tbaa !30
  %88 = icmp slt i32 %86, %87
  br i1 %88, label %89, label %111

89:                                               ; preds = %85
  %90 = load ptr, ptr %25, align 8, !tbaa !59
  %91 = load i32, ptr %35, align 4, !tbaa !30
  %92 = sext i32 %91 to i64
  %93 = getelementptr inbounds ptr, ptr %90, i64 %92
  %94 = load ptr, ptr %93, align 8, !tbaa !61
  %95 = load i32, ptr %34, align 4, !tbaa !30
  %96 = sext i32 %95 to i64
  %97 = getelementptr inbounds i32, ptr %94, i64 %96
  %98 = load i32, ptr %97, align 4, !tbaa !30
  %99 = load ptr, ptr %18, align 8, !tbaa !45
  %100 = load i32, ptr %35, align 4, !tbaa !30
  %101 = sext i32 %100 to i64
  %102 = getelementptr inbounds i16, ptr %99, i64 %101
  %103 = load i16, ptr %102, align 2, !tbaa !49
  %104 = sext i16 %103 to i32
  %105 = mul nsw i32 %98, %104
  %106 = load i32, ptr %37, align 4, !tbaa !30
  %107 = add nsw i32 %106, %105
  store i32 %107, ptr %37, align 4, !tbaa !30
  br label %108

108:                                              ; preds = %89
  %109 = load i32, ptr %35, align 4, !tbaa !30
  %110 = add nsw i32 %109, 1
  store i32 %110, ptr %35, align 4, !tbaa !30
  br label %85, !llvm.loop !174

111:                                              ; preds = %85
  %112 = load i32, ptr %37, align 4, !tbaa !30
  %113 = ashr i32 %112, 15
  store i32 %113, ptr %37, align 4, !tbaa !30
  %114 = load i32, ptr %37, align 4, !tbaa !30
  %115 = add nsw i32 %114, 32768
  store i32 %115, ptr %37, align 4, !tbaa !30
  %116 = load i32, ptr %37, align 4, !tbaa !30
  %117 = call zeroext i16 @av_clip_uint16_c(i32 noundef %116) #10
  %118 = zext i16 %117 to i32
  store i32 %118, ptr %37, align 4, !tbaa !30
  br label %119

119:                                              ; preds = %111, %74
  %120 = load i32, ptr %32, align 4, !tbaa !30
  %121 = icmp ne i32 %120, 0
  br i1 %121, label %122, label %131

122:                                              ; preds = %119
  %123 = load i32, ptr %36, align 4, !tbaa !30
  %124 = trunc i32 %123 to i16
  %125 = call zeroext i16 @av_bswap16(i16 noundef zeroext %124) #10
  %126 = load ptr, ptr %26, align 8, !tbaa !45
  %127 = load i32, ptr %34, align 4, !tbaa !30
  %128 = mul nsw i32 2, %127
  %129 = sext i32 %128 to i64
  %130 = getelementptr inbounds i16, ptr %126, i64 %129
  store i16 %125, ptr %130, align 1, !tbaa !51
  br label %139

131:                                              ; preds = %119
  %132 = load i32, ptr %36, align 4, !tbaa !30
  %133 = trunc i32 %132 to i16
  %134 = load ptr, ptr %26, align 8, !tbaa !45
  %135 = load i32, ptr %34, align 4, !tbaa !30
  %136 = mul nsw i32 2, %135
  %137 = sext i32 %136 to i64
  %138 = getelementptr inbounds i16, ptr %134, i64 %137
  store i16 %133, ptr %138, align 1, !tbaa !51
  br label %139

139:                                              ; preds = %131, %122
  %140 = load i32, ptr %32, align 4, !tbaa !30
  %141 = icmp ne i32 %140, 0
  br i1 %141, label %142, label %152

142:                                              ; preds = %139
  %143 = load i32, ptr %37, align 4, !tbaa !30
  %144 = trunc i32 %143 to i16
  %145 = call zeroext i16 @av_bswap16(i16 noundef zeroext %144) #10
  %146 = load ptr, ptr %26, align 8, !tbaa !45
  %147 = load i32, ptr %34, align 4, !tbaa !30
  %148 = mul nsw i32 2, %147
  %149 = add nsw i32 %148, 1
  %150 = sext i32 %149 to i64
  %151 = getelementptr inbounds i16, ptr %146, i64 %150
  store i16 %145, ptr %151, align 1, !tbaa !51
  br label %161

152:                                              ; preds = %139
  %153 = load i32, ptr %37, align 4, !tbaa !30
  %154 = trunc i32 %153 to i16
  %155 = load ptr, ptr %26, align 8, !tbaa !45
  %156 = load i32, ptr %34, align 4, !tbaa !30
  %157 = mul nsw i32 2, %156
  %158 = add nsw i32 %157, 1
  %159 = sext i32 %158 to i64
  %160 = getelementptr inbounds i16, ptr %155, i64 %159
  store i16 %154, ptr %160, align 1, !tbaa !51
  br label %161

161:                                              ; preds = %152, %142
  call void @llvm.lifetime.end.p0(i64 4, ptr %37) #8
  call void @llvm.lifetime.end.p0(i64 4, ptr %36) #8
  call void @llvm.lifetime.end.p0(i64 4, ptr %35) #8
  br label %162

162:                                              ; preds = %161
  %163 = load i32, ptr %34, align 4, !tbaa !30
  %164 = add nsw i32 %163, 1
  store i32 %164, ptr %34, align 4, !tbaa !30
  br label %43, !llvm.loop !175

165:                                              ; preds = %43
  call void @llvm.lifetime.end.p0(i64 4, ptr %34) #8
  call void @llvm.lifetime.end.p0(i64 4, ptr %33) #8
  ret void
}

; Function Attrs: nounwind uwtable
define internal void @yuv2ya16be_X_c(ptr noundef %0, ptr noundef %1, ptr noundef %2, i32 noundef %3, ptr noundef %4, ptr noundef %5, ptr noundef %6, i32 noundef %7, ptr noundef %8, ptr noundef %9, i32 noundef %10, i32 noundef %11) #4 {
  %13 = alloca ptr, align 8
  %14 = alloca ptr, align 8
  %15 = alloca ptr, align 8
  %16 = alloca i32, align 4
  %17 = alloca ptr, align 8
  %18 = alloca ptr, align 8
  %19 = alloca ptr, align 8
  %20 = alloca i32, align 4
  %21 = alloca ptr, align 8
  %22 = alloca ptr, align 8
  %23 = alloca i32, align 4
  %24 = alloca i32, align 4
  %25 = alloca ptr, align 8
  %26 = alloca ptr, align 8
  %27 = alloca ptr, align 8
  %28 = alloca ptr, align 8
  %29 = alloca ptr, align 8
  store ptr %0, ptr %13, align 8, !tbaa !4
  store ptr %1, ptr %14, align 8, !tbaa !45
  store ptr %2, ptr %15, align 8, !tbaa !47
  store i32 %3, ptr %16, align 4, !tbaa !30
  store ptr %4, ptr %17, align 8, !tbaa !45
  store ptr %5, ptr %18, align 8, !tbaa !47
  store ptr %6, ptr %19, align 8, !tbaa !47
  store i32 %7, ptr %20, align 4, !tbaa !30
  store ptr %8, ptr %21, align 8, !tbaa !47
  store ptr %9, ptr %22, align 8, !tbaa !46
  store i32 %10, ptr %23, align 4, !tbaa !30
  store i32 %11, ptr %24, align 4, !tbaa !30
  call void @llvm.lifetime.start.p0(i64 8, ptr %25) #8
  %30 = load ptr, ptr %15, align 8, !tbaa !47
  store ptr %30, ptr %25, align 8, !tbaa !59
  call void @llvm.lifetime.start.p0(i64 8, ptr %26) #8
  %31 = load ptr, ptr %18, align 8, !tbaa !47
  store ptr %31, ptr %26, align 8, !tbaa !59
  call void @llvm.lifetime.start.p0(i64 8, ptr %27) #8
  %32 = load ptr, ptr %19, align 8, !tbaa !47
  store ptr %32, ptr %27, align 8, !tbaa !59
  call void @llvm.lifetime.start.p0(i64 8, ptr %28) #8
  %33 = load ptr, ptr %21, align 8, !tbaa !47
  store ptr %33, ptr %28, align 8, !tbaa !59
  call void @llvm.lifetime.start.p0(i64 8, ptr %29) #8
  %34 = load ptr, ptr %22, align 8, !tbaa !46
  store ptr %34, ptr %29, align 8, !tbaa !45
  %35 = load ptr, ptr %13, align 8, !tbaa !4
  %36 = load ptr, ptr %14, align 8, !tbaa !45
  %37 = load ptr, ptr %25, align 8, !tbaa !59
  %38 = load i32, ptr %16, align 4, !tbaa !30
  %39 = load ptr, ptr %17, align 8, !tbaa !45
  %40 = load ptr, ptr %26, align 8, !tbaa !59
  %41 = load ptr, ptr %27, align 8, !tbaa !59
  %42 = load i32, ptr %20, align 4, !tbaa !30
  %43 = load ptr, ptr %28, align 8, !tbaa !59
  %44 = load ptr, ptr %29, align 8, !tbaa !45
  %45 = load i32, ptr %23, align 4, !tbaa !30
  %46 = load i32, ptr %24, align 4, !tbaa !30
  call void @yuv2ya16_X_c_template(ptr noundef %35, ptr noundef %36, ptr noundef %37, i32 noundef %38, ptr noundef %39, ptr noundef %40, ptr noundef %41, i32 noundef %42, ptr noundef %43, ptr noundef %44, i32 noundef %45, i32 noundef %46, i32 noundef 109, i32 noundef 1, i32 noundef 0, i32 noundef 1)
  call void @llvm.lifetime.end.p0(i64 8, ptr %29) #8
  call void @llvm.lifetime.end.p0(i64 8, ptr %28) #8
  call void @llvm.lifetime.end.p0(i64 8, ptr %27) #8
  call void @llvm.lifetime.end.p0(i64 8, ptr %26) #8
  call void @llvm.lifetime.end.p0(i64 8, ptr %25) #8
  ret void
}